target datalayout = "e-m:e-p270:32:32-p271:32:32-p272:64:64-i64:64-i128:128-f80:128-n8:16:32:64-S128"
target triple = "x86_64-pc-linux-gnu"

%struct.ssl_st = type { i32, i16, i16, ptr, ptr, ptr, ptr, ptr, i32, i32, ptr, ptr, i32, i32, ptr, ptr, ptr, ptr, ptr, ptr, ptr, ptr, i32, i32, [32 x i8], ptr, ptr, ptr, ptr, ptr, ptr, ptr, i64, %struct.crypto_ex_data_st, ptr, i32, i32, i32, i32, i16, ptr, i32, i64, ptr, ptr, ptr, ptr, ptr, ptr, i32, i32, ptr, ptr, i8, i8, i32 }
%struct.crypto_ex_data_st = type { ptr }
%struct.ssl3_state_st = type { [8 x i8], [8 x i8], [32 x i8], [32 x i8], i8, i8, %struct.ssl3_buffer_st, %struct.ssl3_buffer_st, %struct.ssl3_record_st, i8, i32, i32, i32, i32, ptr, ptr, %struct.env_md_ctx_st, %struct.env_md_ctx_st, i8, i32, [2 x i8], i32, i8, i8, ptr, ptr, ptr, %struct.anon, [64 x i8], i8, [64 x i8], i8, i32, i32, ptr, i64, ptr, i64, i8, [64 x i8] }
%struct.ssl3_buffer_st = type { ptr, i16, i16, i16 }
%struct.ssl3_record_st = type { i8, i16, ptr }
%struct.env_md_ctx_st = type { ptr, ptr, ptr, ptr }
%struct.anon = type { [64 x i8], i32, [64 x i8], i32, i64, i32, ptr, i32, i32, %union.anon, %union.anon.0, i8, i32, ptr, ptr, i64, ptr, i8, i8, i8, i8, i32, i8, ptr, i64, i8, ptr, i8, i8, i8, %struct.ssl_ecdh_ctx_st, ptr, i16 }
%union.anon = type { i32 }
%union.anon.0 = type { i16 }
%struct.ssl_ecdh_ctx_st = type { ptr, ptr }

; Function Attrs: nounwind uwtable
define internal i32 @ext_channel_id_add_serverhello(ptr noundef %0, ptr noundef %1) #0 {
  %3 = alloca i32, align 4
  %4 = alloca ptr, align 8
  %5 = alloca ptr, align 8
  store ptr %0, ptr %4, align 8, !tbaa !69
  store ptr %1, ptr %5, align 8, !tbaa !128
  %6 = load ptr, ptr %4, align 8, !tbaa !69
  %7 = getelementptr inbounds nuw %struct.ssl_st, ptr %6, i32 0, i32 14
  %8 = load ptr, ptr %7, align 8, !tbaa !75
  %9 = getelementptr inbounds nuw %struct.ssl3_state_st, ptr %8, i32 0, i32 38
  %10 = load i8, ptr %9, align 8, !tbaa !208
  %11 = icmp ne i8 %10, 0
  br i1 %11, label %13, label %12

12:                                               ; preds = %2
  store i32 1, ptr %3, align 4
  br label %23

13:                                               ; preds = %2
  %14 = load ptr, ptr %5, align 8, !tbaa !128
  %15 = call i32 @CBB_add_u16(ptr noundef %14, i16 noundef zeroext 30032)
  %16 = icmp ne i32 %15, 0
  br i1 %16, label %17, label %21

17:                                               ; preds = %13
  %18 = load ptr, ptr %5, align 8, !tbaa !128
  %19 = call i32 @CBB_add_u16(ptr noundef %18, i16 noundef zeroext 0)
  %20 = icmp ne i32 %19, 0
  br i1 %20, label %22, label %21

21:                                               ; preds = %17, %13
  store i32 0, ptr %3, align 4
  br label %23

22:                                               ; preds = %17
  store i32 1, ptr %3, align 4
  br label %23

23:                                               ; preds = %22, %21, %12
  %24 = load i32, ptr %3, align 4
  ret i32 %24
}