; Function Attrs: nounwind uwtable
define internal range(i32 0, 2) i32 @ext_channel_id_add_serverhello(ptr noundef readonly captures(none) %0, ptr noundef %1) #0 {
  %3 = getelementptr inbounds nuw i8, ptr %0, i64 80
  %4 = load ptr, ptr %3, align 8, !tbaa !58
  %5 = getelementptr inbounds nuw i8, ptr %4, i64 768
  %6 = load i8, ptr %5, align 8, !tbaa !177
  %.not = icmp eq i8 %6, 0
  br i1 %.not, label %11, label %7

7:                                                ; preds = %2
  %8 = tail call i32 @CBB_add_u16(ptr noundef %1, i16 noundef zeroext 30032) #21
  %.not3 = icmp eq i32 %8, 0
  br i1 %.not3, label %11, label %9

9:                                                ; preds = %7
  %10 = tail call i32 @CBB_add_u16(ptr noundef %1, i16 noundef zeroext 0) #21
  %.not4 = icmp ne i32 %10, 0
  %spec.select = zext i1 %.not4 to i32
  br label %11

11:                                               ; preds = %9, %7, %2
  %.0 = phi i32 [ 1, %2 ], [ 0, %7 ], [ %spec.select, %9 ]
  ret i32 %.0
}